target datalayout = "e-m:e-p270:32:32-p271:32:32-p272:64:64-i64:64-i128:128-f80:128-n8:16:32:64-S128"
target triple = "x86_64-pc-linux-gnu"

%struct.GCRef = type { i64 }
%struct.GCstr = type { %struct.GCRef, i8, i8, i8, i8, i32, i32, i32 }
%struct.jit_State = type { %struct.GCtrace, ptr, ptr, ptr, ptr, ptr, ptr, i32, i32, i32, i8, i8, %struct.IRType1, i8, %struct.FoldState, ptr, i32, i32, i32, i32, i32, i32, i32, [1 x i32], [5 x %union.TValue], [3 x %union.TValue], ptr, i32, i32, i32, i32, ptr, ptr, i32, i32, i8, ptr, i32, i32, i16, [101 x i16], [258 x i32], [15 x i32], [16 x ptr], [64 x %struct.HotPenalty], i32, [16 x %struct.BPropEntry], i32, %struct.ScEvEntry, ptr, i32, i32, i32, ptr, i32, i32, ptr, ptr, ptr, i64, i64, %union.TValue, ptr, i32, i32 }
%struct.GCtrace = type { %struct.GCRef, i8, i8, i16, i32, i32, %struct.GCRef, ptr, i32, i32, ptr, ptr, %struct.GCRef, %struct.MRef, i32, i32, ptr, i32, i16, i16, i16, i16, i16, i16, i16, i8, i8, i8, i8 }
%struct.MRef = type { i64 }
%struct.IRType1 = type { i8 }
%struct.FoldState = type { %union.IRIns, [2 x %union.IRIns], [2 x %union.IRIns] }
%union.IRIns = type { %struct.GCRef }
%struct.HotPenalty = type { %struct.MRef, i16, i16 }
%struct.BPropEntry = type { i16, i16, i32 }
%struct.ScEvEntry = type { %struct.MRef, i16, i16, i16, i16, %struct.IRType1, i8 }
%union.TValue = type { i64 }
%struct.anon.2 = type { i16, i16, i16, i16 }

; Function Attrs: alwaysinline nounwind uwtable
define internal i32 @lj_strscan_numberobj(ptr noundef %0) #1 {
  %2 = alloca ptr, align 8
  store ptr %0, ptr %2, align 8, !tbaa !11
  %3 = load ptr, ptr %2, align 8, !tbaa !11
  %4 = load i64, ptr %3, align 8, !tbaa !13
  %5 = ashr i64 %4, 47
  %6 = trunc i64 %5 to i32
  %7 = icmp ule i32 %6, -14
  br i1 %7, label %25, label %8

8:                                                ; preds = %1
  %9 = load ptr, ptr %2, align 8, !tbaa !11
  %10 = load i64, ptr %9, align 8, !tbaa !13
  %11 = ashr i64 %10, 47
  %12 = trunc i64 %11 to i32
  %13 = icmp eq i32 %12, -5
  br i1 %13, label %14, label %23

14:                                               ; preds = %8
  %15 = load ptr, ptr %2, align 8, !tbaa !11
  %16 = getelementptr inbounds nuw %struct.GCRef, ptr %15, i32 0, i32 0
  %17 = load i64, ptr %16, align 8, !tbaa !13
  %18 = and i64 %17, 140737488355327
  %19 = inttoptr i64 %18 to ptr
  %20 = load ptr, ptr %2, align 8, !tbaa !11
  %21 = call i32 @lj_strscan_num(ptr noundef %19, ptr noundef %20)
  %22 = icmp ne i32 %21, 0
  br label %23

23:                                               ; preds = %14, %8
  %24 = phi i1 [ false, %8 ], [ %22, %14 ]
  br label %25

25:                                               ; preds = %23, %1
  %26 = phi i1 [ true, %1 ], [ %24, %23 ]
  %27 = zext i1 %26 to i32
  ret i32 %27
}

; Function Attrs: nounwind uwtable
define internal i32 @argv2int(ptr noundef %0, ptr noundef %1) #0 {
  %3 = alloca ptr, align 8
  %4 = alloca ptr, align 8
  store ptr %0, ptr %3, align 8, !tbaa !4
  store ptr %1, ptr %4, align 8, !tbaa !11
  %5 = load ptr, ptr %4, align 8, !tbaa !11
  %6 = call i32 @lj_strscan_numberobj(ptr noundef %5)
  %7 = icmp ne i32 %6, 0
  br i1 %7, label %10, label %8

8:                                                ; preds = %2
  %9 = load ptr, ptr %3, align 8, !tbaa !4
  call void @lj_trace_err(ptr noundef %9, i32 noundef 11) #10
  unreachable

10:                                               ; preds = %2
  %11 = load ptr, ptr %4, align 8, !tbaa !11
  %12 = load double, ptr %11, align 8, !tbaa !13
  %13 = fptosi double %12 to i32
  ret i32 %13
}

; Function Attrs: alwaysinline nounwind uwtable
define internal void @lj_ir_set_(ptr noundef %0, i16 noundef zeroext %1, i16 noundef zeroext %2, i16 noundef zeroext %3) #1 {
  %5 = alloca ptr, align 8
  %6 = alloca i16, align 2
  %7 = alloca i16, align 2
  %8 = alloca i16, align 2
  store ptr %0, ptr %5, align 8, !tbaa !4
  store i16 %1, ptr %6, align 2, !tbaa !14
  store i16 %2, ptr %7, align 2, !tbaa !14
  store i16 %3, ptr %8, align 2, !tbaa !14
  %9 = load i16, ptr %6, align 2, !tbaa !14
  %10 = load ptr, ptr %5, align 8, !tbaa !4
  %11 = getelementptr inbounds nuw %struct.jit_State, ptr %10, i32 0, i32 14
  %12 = getelementptr inbounds nuw %struct.FoldState, ptr %11, i32 0, i32 0
  %13 = getelementptr inbounds nuw %struct.anon.2, ptr %12, i32 0, i32 2
  store i16 %9, ptr %13, align 4, !tbaa !13
  %14 = load i16, ptr %7, align 2, !tbaa !14
  %15 = load ptr, ptr %5, align 8, !tbaa !4
  %16 = getelementptr inbounds nuw %struct.jit_State, ptr %15, i32 0, i32 14
  %17 = getelementptr inbounds nuw %struct.FoldState, ptr %16, i32 0, i32 0
  %18 = getelementptr inbounds nuw %struct.anon.2, ptr %17, i32 0, i32 0
  store i16 %14, ptr %18, align 8, !tbaa !13
  %19 = load i16, ptr %8, align 2, !tbaa !14
  %20 = load ptr, ptr %5, align 8, !tbaa !4
  %21 = getelementptr inbounds nuw %struct.jit_State, ptr %20, i32 0, i32 14
  %22 = getelementptr inbounds nuw %struct.FoldState, ptr %21, i32 0, i32 0
  %23 = getelementptr inbounds nuw %struct.anon.2, ptr %22, i32 0, i32 1
  store i16 %19, ptr %23, align 2, !tbaa !13
  ret void
}

; Function Attrs: nounwind uwtable
define hidden i32 @lj_ffrecord_select_mode(ptr noundef %0, i32 noundef %1, ptr noundef %2) #0 {
  %4 = alloca i32, align 4
  %5 = alloca ptr, align 8
  %6 = alloca i32, align 4
  %7 = alloca ptr, align 8
  %8 = alloca i32, align 4
  %9 = alloca i32, align 4
  %10 = alloca i32, align 4
  store ptr %0, ptr %5, align 8, !tbaa !4
  store i32 %1, ptr %6, align 4, !tbaa !9
  store ptr %2, ptr %7, align 8, !tbaa !11
  %11 = load i32, ptr %6, align 4, !tbaa !9
  %12 = and i32 %11, 520093696
  %13 = icmp eq i32 %12, 67108864
  br i1 %13, label %14, label %70

14:                                               ; preds = %3
  %15 = load ptr, ptr %7, align 8, !tbaa !11
  %16 = getelementptr inbounds nuw %struct.GCRef, ptr %15, i32 0, i32 0
  %17 = load i64, ptr %16, align 8, !tbaa !13
  %18 = and i64 %17, 140737488355327
  %19 = inttoptr i64 %18 to ptr
  %20 = getelementptr inbounds %struct.GCstr, ptr %19, i64 1
  %21 = load i8, ptr %20, align 1, !tbaa !13
  %22 = sext i8 %21 to i32
  %23 = icmp eq i32 %22, 35
  br i1 %23, label %24, label %70

24:                                               ; preds = %14
  %25 = load ptr, ptr %7, align 8, !tbaa !11
  %26 = getelementptr inbounds nuw %struct.GCRef, ptr %25, i32 0, i32 0
  %27 = load i64, ptr %26, align 8, !tbaa !13
  %28 = and i64 %27, 140737488355327
  %29 = inttoptr i64 %28 to ptr
  %30 = getelementptr inbounds nuw %struct.GCstr, ptr %29, i32 0, i32 7
  %31 = load i32, ptr %30, align 4, !tbaa !13
  %32 = icmp eq i32 %31, 1
  br i1 %32, label %33, label %47

33:                                               ; preds = %24
  %34 = load ptr, ptr %5, align 8, !tbaa !4
  %35 = load i32, ptr %6, align 4, !tbaa !9
  %36 = trunc i32 %35 to i16
  %37 = load ptr, ptr %5, align 8, !tbaa !4
  %38 = load ptr, ptr %7, align 8, !tbaa !11
  %39 = getelementptr inbounds nuw %struct.GCRef, ptr %38, i32 0, i32 0
  %40 = load i64, ptr %39, align 8, !tbaa !13
  %41 = and i64 %40, 140737488355327
  %42 = inttoptr i64 %41 to ptr
  %43 = call i32 @lj_ir_kgc(ptr noundef %37, ptr noundef %42, i32 noundef 4)
  %44 = trunc i32 %43 to i16
  call void @lj_ir_set_(ptr noundef %34, i16 noundef zeroext 2180, i16 noundef zeroext %36, i16 noundef zeroext %44)
  %45 = load ptr, ptr %5, align 8, !tbaa !4
  %46 = call i32 @lj_opt_fold(ptr noundef %45)
  br label %69

47:                                               ; preds = %24
  call void @llvm.lifetime.start.p0(i64 4, ptr %8) #9
  %48 = load ptr, ptr %5, align 8, !tbaa !4
  %49 = load i32, ptr %6, align 4, !tbaa !9
  %50 = trunc i32 %49 to i16
  %51 = load ptr, ptr %5, align 8, !tbaa !4
  %52 = call i32 @lj_ir_kint(ptr noundef %51, i32 noundef 0)
  %53 = trunc i32 %52 to i16
  call void @lj_ir_set_(ptr noundef %48, i16 noundef zeroext 16393, i16 noundef zeroext %50, i16 noundef zeroext %53)
  %54 = load ptr, ptr %5, align 8, !tbaa !4
  %55 = call i32 @lj_opt_fold(ptr noundef %54)
  store i32 %55, ptr %8, align 4, !tbaa !9
  call void @llvm.lifetime.start.p0(i64 4, ptr %9) #9
  %56 = load ptr, ptr %5, align 8, !tbaa !4
  %57 = load i32, ptr %8, align 4, !tbaa !9
  %58 = trunc i32 %57 to i16
  call void @lj_ir_set_(ptr noundef %56, i16 noundef zeroext 17936, i16 noundef zeroext %58, i16 noundef zeroext 1)
  %59 = load ptr, ptr %5, align 8, !tbaa !4
  %60 = call i32 @lj_opt_fold(ptr noundef %59)
  store i32 %60, ptr %9, align 4, !tbaa !9
  %61 = load ptr, ptr %5, align 8, !tbaa !4
  %62 = load i32, ptr %9, align 4, !tbaa !9
  %63 = trunc i32 %62 to i16
  %64 = load ptr, ptr %5, align 8, !tbaa !4
  %65 = call i32 @lj_ir_kint(ptr noundef %64, i32 noundef 35)
  %66 = trunc i32 %65 to i16
  call void @lj_ir_set_(ptr noundef %61, i16 noundef zeroext 2195, i16 noundef zeroext %63, i16 noundef zeroext %66)
  %67 = load ptr, ptr %5, align 8, !tbaa !4
  %68 = call i32 @lj_opt_fold(ptr noundef %67)
  call void @llvm.lifetime.end.p0(i64 4, ptr %9) #9
  call void @llvm.lifetime.end.p0(i64 4, ptr %8) #9
  br label %69

69:                                               ; preds = %47, %33
  store i32 0, ptr %4, align 4
  br label %80

70:                                               ; preds = %14, %3
  call void @llvm.lifetime.start.p0(i64 4, ptr %10) #9
  %71 = load ptr, ptr %5, align 8, !tbaa !4
  %72 = load ptr, ptr %7, align 8, !tbaa !11
  %73 = call i32 @argv2int(ptr noundef %71, ptr noundef %72)
  store i32 %73, ptr %10, align 4, !tbaa !9
  %74 = load i32, ptr %10, align 4, !tbaa !9
  %75 = icmp eq i32 %74, 0
  br i1 %75, label %76, label %78

76:                                               ; preds = %70
  %77 = load ptr, ptr %5, align 8, !tbaa !4
  call void @lj_trace_err(ptr noundef %77, i32 noundef 11) #10
  unreachable

78:                                               ; preds = %70
  %79 = load i32, ptr %10, align 4, !tbaa !9
  store i32 %79, ptr %4, align 4
  call void @llvm.lifetime.end.p0(i64 4, ptr %10) #9
  br label %80

80:                                               ; preds = %78, %69
  %81 = load i32, ptr %4, align 4
  ret i32 %81
}