; Function Attrs: nounwind uwtable
define hidden i32 @lj_ffrecord_select_mode(ptr noundef %0, i32 noundef %1, ptr noundef %2) local_unnamed_addr #0 {
  %4 = and i32 %1, 520093696
  %5 = icmp eq i32 %4, 67108864
  %.pre = load i64, ptr %2, align 8
  br i1 %5, label %6, label %30

6:                                                ; preds = %3
  %7 = and i64 %.pre, 140737488355327
  %8 = inttoptr i64 %7 to ptr
  %9 = getelementptr inbounds nuw i8, ptr %8, i64 24
  %10 = load i8, ptr %9, align 1, !tbaa !4
  %11 = icmp eq i8 %10, 35
  br i1 %11, label %12, label %30

12:                                               ; preds = %6
  %13 = getelementptr inbounds nuw i8, ptr %8, i64 20
  %14 = load i32, ptr %13, align 4, !tbaa !4
  %15 = icmp eq i32 %14, 1
  %16 = trunc i32 %1 to i16
  %17 = getelementptr inbounds nuw i8, ptr %0, i64 184
  %18 = getelementptr inbounds nuw i8, ptr %0, i64 188
  %19 = getelementptr inbounds nuw i8, ptr %0, i64 186
  br i1 %15, label %20, label %22

20:                                               ; preds = %12
  %21 = tail call i32 @lj_ir_kgc(ptr noundef %0, ptr noundef nonnull %8, i32 noundef 4) #9
  br label %.sink.split

22:                                               ; preds = %12
  %23 = tail call i32 @lj_ir_kint(ptr noundef %0, i32 noundef 0) #9
  %24 = trunc i32 %23 to i16
  store i16 16393, ptr %18, align 4, !tbaa !4
  store i16 %16, ptr %17, align 8, !tbaa !4
  store i16 %24, ptr %19, align 2, !tbaa !4
  %25 = tail call i32 @lj_opt_fold(ptr noundef %0) #9
  %26 = trunc i32 %25 to i16
  store i16 17936, ptr %18, align 4, !tbaa !4
  store i16 %26, ptr %17, align 8, !tbaa !4
  store i16 1, ptr %19, align 2, !tbaa !4
  %27 = tail call i32 @lj_opt_fold(ptr noundef %0) #9
  %28 = trunc i32 %27 to i16
  %29 = tail call i32 @lj_ir_kint(ptr noundef %0, i32 noundef 35) #9
  br label %.sink.split

30:                                               ; preds = %6, %3
  %31 = ashr i64 %.pre, 47
  %32 = icmp ult i64 %31, -13
  %33 = bitcast i64 %.pre to double
  br i1 %32, label %argv2int.exit, label %34

34:                                               ; preds = %30
  %35 = icmp eq i64 %31, -5
  br i1 %35, label %lj_strscan_numberobj.exit.i, label %lj_strscan_numberobj.exit.thread.i

lj_strscan_numberobj.exit.i:                      ; preds = %34
  %36 = and i64 %.pre, 140737488355327
  %37 = inttoptr i64 %36 to ptr
  %38 = tail call i32 @lj_strscan_num(ptr noundef %37, ptr noundef nonnull %2) #9
  %.not6.i = icmp eq i32 %38, 0
  br i1 %.not6.i, label %lj_strscan_numberobj.exit.thread.i, label %lj_strscan_numberobj.exit.lj_strscan_numberobj.exit.thread4_crit_edge.i

lj_strscan_numberobj.exit.lj_strscan_numberobj.exit.thread4_crit_edge.i: ; preds = %lj_strscan_numberobj.exit.i
  %.pre.i = load double, ptr %2, align 8, !tbaa !4
  br label %argv2int.exit

lj_strscan_numberobj.exit.thread.i:               ; preds = %lj_strscan_numberobj.exit.i, %34
  tail call void @lj_trace_err(ptr noundef %0, i32 noundef 11) #10
  unreachable

argv2int.exit:                                    ; preds = %30, %lj_strscan_numberobj.exit.lj_strscan_numberobj.exit.thread4_crit_edge.i
  %39 = phi double [ %.pre.i, %lj_strscan_numberobj.exit.lj_strscan_numberobj.exit.thread4_crit_edge.i ], [ %33, %30 ]
  %40 = fptosi double %39 to i32
  %41 = icmp eq i32 %40, 0
  br i1 %41, label %42, label %45

42:                                               ; preds = %argv2int.exit
  tail call void @lj_trace_err(ptr noundef %0, i32 noundef 11) #10
  unreachable

.sink.split:                                      ; preds = %22, %20
  %.sink27 = phi i32 [ %21, %20 ], [ %29, %22 ]
  %.sink26 = phi i16 [ 2180, %20 ], [ 2195, %22 ]
  %.sink25 = phi i16 [ %16, %20 ], [ %28, %22 ]
  %43 = trunc i32 %.sink27 to i16
  store i16 %.sink26, ptr %18, align 4, !tbaa !4
  store i16 %.sink25, ptr %17, align 8, !tbaa !4
  store i16 %43, ptr %19, align 2, !tbaa !4
  %44 = tail call i32 @lj_opt_fold(ptr noundef %0) #9
  br label %45

45:                                               ; preds = %.sink.split, %argv2int.exit
  %.0 = phi i32 [ %40, %argv2int.exit ], [ 0, %.sink.split ]
  ret i32 %.0
}